; Function Attrs: nounwind uwtable
define dso_local ptr @PyCoro_New(ptr noundef %0, ptr noundef %1, ptr noundef %2) local_unnamed_addr #2 {
  %4 = tail call fastcc ptr @gen_new_with_qualname(ptr noundef nonnull @PyCoro_Type, ptr noundef %0, ptr noundef %1, ptr noundef %2)
  %.not = icmp eq ptr %4, null
  br i1 %.not, label %.critedge, label %5

5:                                                ; preds = %3
  %6 = tail call align 8 ptr @llvm.threadlocal.address.p0(ptr align 8 @_Py_tss_tstate)
  %7 = load ptr, ptr %6, align 8, !tbaa !39
  %8 = getelementptr inbounds nuw i8, ptr %7, i64 184
  %9 = load i32, ptr %8, align 8, !tbaa !124
  %10 = icmp eq i32 %9, 0
  br i1 %10, label %11, label %13

11:                                               ; preds = %5
  %12 = getelementptr inbounds nuw i8, ptr %4, i64 56
  store ptr null, ptr %12, align 8, !tbaa !125
  br label %.critedge

13:                                               ; preds = %5
  %14 = tail call ptr @_PyEval_GetFrame() #8
  %15 = tail call fastcc ptr @compute_cr_origin(i32 noundef %9, ptr noundef %14)
  %16 = getelementptr inbounds nuw i8, ptr %4, i64 56
  store ptr %15, ptr %16, align 8, !tbaa !125
  %.not17.not = icmp eq ptr %15, null
  br i1 %.not17.not, label %17, label %.critedge

17:                                               ; preds = %13
  %18 = load i32, ptr %4, align 8, !tbaa !4
  %.not.i = icmp sgt i32 %18, -1
  br i1 %.not.i, label %19, label %.critedge

19:                                               ; preds = %17
  %20 = add nsw i32 %18, -1
  store i32 %20, ptr %4, align 8, !tbaa !4
  %21 = icmp eq i32 %20, 0
  br i1 %21, label %22, label %.critedge

22:                                               ; preds = %19
  tail call void @_Py_Dealloc(ptr noundef nonnull %4) #8
  br label %.critedge

.critedge:                                        ; preds = %22, %19, %17, %11, %13, %3
  %.0 = phi ptr [ null, %3 ], [ %4, %13 ], [ %4, %11 ], [ null, %17 ], [ null, %19 ], [ null, %22 ]
  ret ptr %.0
}